#include <math.h>
#include <stdio.h>
#include <stdlib.h>
#include <string.h>
#include <iostream>
using namespace std;

int main()
{
    int num;
    cin>>num;
    if(num>1)
    for(int i=0;;i++){
    if(num%2==1)
    {
    cout<<num;
    num=num*3+1;
    cout<<"*3+1="<<num<<endl;
    }
    if(num%2==0)
    {
    cout<<num;
    num=num/2;
    cout<<"/2="<<num<<endl;
    if(num==1)
    break;
    }
    }
    if(num==1)
  cout<<"End"<<endl;
    return 0;
}
